target datalayout = "e-m:e-p270:32:32-p271:32:32-p272:64:64-i64:64-i128:128-f80:128-n8:16:32:64-S128"
target triple = "x86_64-pc-linux-gnu"

%"class.clang::DeclContext" = type { ptr, %union.anon.374, ptr, ptr }
%union.anon.374 = type { %"class.clang::DeclContext::RecordDeclBitfields" }
%"class.clang::DeclContext::RecordDeclBitfields" = type { i64 }

; Function Attrs: mustprogress nounwind uwtable
define linkonce_odr hidden void @_ZNK5clang11DeclContext21setUseQualifiedLookupEb(ptr noundef nonnull align 8 dereferenceable(32) %0, i1 noundef zeroext %1) #0 comdat align 2 {
  %3 = alloca ptr, align 8
  %4 = alloca i8, align 1
  store ptr %0, ptr %3, align 8
  %5 = zext i1 %1 to i8
  store i8 %5, ptr %4, align 1
  %6 = load ptr, ptr %3, align 8
  %7 = load i8, ptr %4, align 1
  %8 = trunc i8 %7 to i1
  %9 = zext i1 %8 to i64
  %10 = getelementptr inbounds nuw %"class.clang::DeclContext", ptr %6, i32 0, i32 1
  %11 = trunc i64 %9 to i16
  %12 = load i16, ptr %10, align 8
  %13 = and i16 %11, 1
  %14 = shl i16 %13, 12
  %15 = and i16 %12, -4097
  %16 = or i16 %15, %14
  store i16 %16, ptr %10, align 8
  ret void
}

; Function Attrs: mustprogress nounwind uwtable
define linkonce_odr hidden void @_ZNK5clang11DeclContext32setHasLazyExternalLexicalLookupsEb(ptr noundef nonnull align 8 dereferenceable(32) %0, i1 noundef zeroext %1) #0 comdat align 2 {
  %3 = alloca ptr, align 8
  %4 = alloca i8, align 1
  store ptr %0, ptr %3, align 8
  %5 = zext i1 %1 to i8
  store i8 %5, ptr %4, align 1
  %6 = load ptr, ptr %3, align 8
  %7 = load i8, ptr %4, align 1
  %8 = trunc i8 %7 to i1
  %9 = zext i1 %8 to i64
  %10 = getelementptr inbounds nuw %"class.clang::DeclContext", ptr %6, i32 0, i32 1
  %11 = trunc i64 %9 to i16
  %12 = load i16, ptr %10, align 8
  %13 = and i16 %11, 1
  %14 = shl i16 %13, 11
  %15 = and i16 %12, -2049
  %16 = or i16 %15, %14
  store i16 %16, ptr %10, align 8
  ret void
}

; Function Attrs: mustprogress nounwind uwtable
define linkonce_odr hidden void @_ZNK5clang11DeclContext29setHasLazyLocalLexicalLookupsEb(ptr noundef nonnull align 8 dereferenceable(32) %0, i1 noundef zeroext %1) #0 comdat align 2 {
  %3 = alloca ptr, align 8
  %4 = alloca i8, align 1
  store ptr %0, ptr %3, align 8
  %5 = zext i1 %1 to i8
  store i8 %5, ptr %4, align 1
  %6 = load ptr, ptr %3, align 8
  %7 = load i8, ptr %4, align 1
  %8 = trunc i8 %7 to i1
  %9 = zext i1 %8 to i64
  %10 = getelementptr inbounds nuw %"class.clang::DeclContext", ptr %6, i32 0, i32 1
  %11 = trunc i64 %9 to i16
  %12 = load i16, ptr %10, align 8
  %13 = and i16 %11, 1
  %14 = shl i16 %13, 10
  %15 = and i16 %12, -1025
  %16 = or i16 %15, %14
  store i16 %16, ptr %10, align 8
  ret void
}

; Function Attrs: mustprogress nounwind uwtable
define linkonce_odr hidden void @_ZNK5clang11DeclContext40setNeedToReconcileExternalVisibleStorageEb(ptr noundef nonnull align 8 dereferenceable(32) %0, i1 noundef zeroext %1) #0 comdat align 2 {
  %3 = alloca ptr, align 8
  %4 = alloca i8, align 1
  store ptr %0, ptr %3, align 8
  %5 = zext i1 %1 to i8
  store i8 %5, ptr %4, align 1
  %6 = load ptr, ptr %3, align 8
  %7 = load i8, ptr %4, align 1
  %8 = trunc i8 %7 to i1
  %9 = zext i1 %8 to i64
  %10 = getelementptr inbounds nuw %"class.clang::DeclContext", ptr %6, i32 0, i32 1
  %11 = trunc i64 %9 to i16
  %12 = load i16, ptr %10, align 8
  %13 = and i16 %11, 1
  %14 = shl i16 %13, 9
  %15 = and i16 %12, -513
  %16 = or i16 %15, %14
  store i16 %16, ptr %10, align 8
  ret void
}

; Function Attrs: mustprogress nounwind uwtable
define linkonce_odr hidden void @_ZNK5clang11DeclContext28setHasExternalVisibleStorageEb(ptr noundef nonnull align 8 dereferenceable(32) %0, i1 noundef zeroext %1) #0 comdat align 2 {
  %3 = alloca ptr, align 8
  %4 = alloca i8, align 1
  store ptr %0, ptr %3, align 8
  %5 = zext i1 %1 to i8
  store i8 %5, ptr %4, align 1
  %6 = load ptr, ptr %3, align 8
  %7 = load i8, ptr %4, align 1
  %8 = trunc i8 %7 to i1
  %9 = zext i1 %8 to i64
  %10 = getelementptr inbounds nuw %"class.clang::DeclContext", ptr %6, i32 0, i32 1
  %11 = trunc i64 %9 to i16
  %12 = load i16, ptr %10, align 8
  %13 = and i16 %11, 1
  %14 = shl i16 %13, 8
  %15 = and i16 %12, -257
  %16 = or i16 %15, %14
  store i16 %16, ptr %10, align 8
  %17 = load i8, ptr %4, align 1
  %18 = trunc i8 %17 to i1
  br i1 %18, label %19, label %28

19:                                               ; preds = %2
  %20 = getelementptr inbounds nuw %"class.clang::DeclContext", ptr %6, i32 0, i32 0
  %21 = load ptr, ptr %20, align 8
  %22 = icmp ne ptr %21, null
  br i1 %22, label %23, label %28

23:                                               ; preds = %19
  %24 = getelementptr inbounds nuw %"class.clang::DeclContext", ptr %6, i32 0, i32 1
  %25 = load i16, ptr %24, align 8
  %26 = and i16 %25, -513
  %27 = or i16 %26, 512
  store i16 %27, ptr %24, align 8
  br label %28

28:                                               ; preds = %23, %19, %2
  ret void
}

; Function Attrs: mustprogress nounwind uwtable
define linkonce_odr hidden void @_ZNK5clang11DeclContext28setHasExternalLexicalStorageEb(ptr noundef nonnull align 8 dereferenceable(32) %0, i1 noundef zeroext %1) #0 comdat align 2 {
  %3 = alloca ptr, align 8
  %4 = alloca i8, align 1
  store ptr %0, ptr %3, align 8
  %5 = zext i1 %1 to i8
  store i8 %5, ptr %4, align 1
  %6 = load ptr, ptr %3, align 8
  %7 = load i8, ptr %4, align 1
  %8 = trunc i8 %7 to i1
  %9 = zext i1 %8 to i64
  %10 = getelementptr inbounds nuw %"class.clang::DeclContext", ptr %6, i32 0, i32 1
  %11 = trunc i64 %9 to i16
  %12 = load i16, ptr %10, align 8
  %13 = and i16 %11, 1
  %14 = shl i16 %13, 7
  %15 = and i16 %12, -129
  %16 = or i16 %15, %14
  store i16 %16, ptr %10, align 8
  ret void
}

; Function Attrs: mustprogress nounwind uwtable
define dso_local void @_ZN5clang11DeclContextC2ENS_4Decl4KindE(ptr noundef nonnull align 8 dereferenceable(32) %0, i32 noundef %1) unnamed_addr #0 align 2 {
  %3 = alloca ptr, align 8
  %4 = alloca i32, align 4
  store ptr %0, ptr %3, align 8
  store i32 %1, ptr %4, align 4
  %5 = load ptr, ptr %3, align 8
  %6 = getelementptr inbounds nuw %"class.clang::DeclContext", ptr %5, i32 0, i32 0
  store ptr null, ptr %6, align 8
  %7 = getelementptr inbounds nuw %"class.clang::DeclContext", ptr %5, i32 0, i32 2
  store ptr null, ptr %7, align 8
  %8 = getelementptr inbounds nuw %"class.clang::DeclContext", ptr %5, i32 0, i32 3
  store ptr null, ptr %8, align 8
  %9 = load i32, ptr %4, align 4
  %10 = zext i32 %9 to i64
  %11 = getelementptr inbounds nuw %"class.clang::DeclContext", ptr %5, i32 0, i32 1
  %12 = trunc i64 %10 to i16
  %13 = load i16, ptr %11, align 8
  %14 = and i16 %12, 127
  %15 = and i16 %13, -128
  %16 = or i16 %15, %14
  store i16 %16, ptr %11, align 8
  call void @_ZNK5clang11DeclContext28setHasExternalLexicalStorageEb(ptr noundef nonnull align 8 dereferenceable(32) %5, i1 noundef zeroext false)
  call void @_ZNK5clang11DeclContext28setHasExternalVisibleStorageEb(ptr noundef nonnull align 8 dereferenceable(32) %5, i1 noundef zeroext false)
  call void @_ZNK5clang11DeclContext40setNeedToReconcileExternalVisibleStorageEb(ptr noundef nonnull align 8 dereferenceable(32) %5, i1 noundef zeroext false)
  call void @_ZNK5clang11DeclContext29setHasLazyLocalLexicalLookupsEb(ptr noundef nonnull align 8 dereferenceable(32) %5, i1 noundef zeroext false)
  call void @_ZNK5clang11DeclContext32setHasLazyExternalLexicalLookupsEb(ptr noundef nonnull align 8 dereferenceable(32) %5, i1 noundef zeroext false)
  call void @_ZNK5clang11DeclContext21setUseQualifiedLookupEb(ptr noundef nonnull align 8 dereferenceable(32) %5, i1 noundef zeroext false)
  ret void
}