; Function Attrs: mustprogress nofree norecurse nosync nounwind willreturn memory(argmem: readwrite) uwtable
define dso_local void @_ZN5clang11DeclContextC2ENS_4Decl4KindE(ptr nocapture noundef nonnull align 8 dereferenceable(32) %0, i32 noundef %1) unnamed_addr #3 align 2 {
  store ptr null, ptr %0, align 8
  %3 = getelementptr inbounds nuw i8, ptr %0, i64 16
  %4 = getelementptr inbounds nuw i8, ptr %0, i64 8
  %5 = trunc i32 %1 to i16
  tail call void @llvm.memset.p0.i64(ptr noundef nonnull align 8 dereferenceable(16) %3, i8 0, i64 16, i1 false)
  %6 = load i16, ptr %4, align 8
  %7 = and i16 %5, 127
  %8 = and i16 %6, -8192
  %9 = or disjoint i16 %8, %7
  store i16 %9, ptr %4, align 8
  ret void
}